; Function Attrs: mustprogress nounwind uwtable
define void @_ZN15gmx_ewald_tab_tD2Ev(ptr noundef nonnull readonly align 8 captures(none) dereferenceable(64) %0) unnamed_addr #2 align 2 personality ptr @__gxx_personality_v0 {
  %2 = getelementptr inbounds nuw i8, ptr %0, i64 40
  %3 = load ptr, ptr %2, align 8, !tbaa !114
  %.not.i.i.i = icmp eq ptr %3, null
  br i1 %.not.i.i.i, label %_ZNSt6vectorI9t_complexSaIS0_EED2Ev.exit, label %4

4:                                                ; preds = %1
  %5 = getelementptr inbounds nuw i8, ptr %0, i64 56
  %6 = load ptr, ptr %5, align 8, !tbaa !115
  %7 = ptrtoint ptr %6 to i64
  %8 = ptrtoint ptr %3 to i64
  %9 = sub i64 %7, %8
  tail call void @_ZdlPvm(ptr noundef nonnull %3, i64 noundef %9) #21
  br label %_ZNSt6vectorI9t_complexSaIS0_EED2Ev.exit

_ZNSt6vectorI9t_complexSaIS0_EED2Ev.exit:         ; preds = %1, %4
  %10 = getelementptr inbounds nuw i8, ptr %0, i64 16
  %11 = load ptr, ptr %10, align 8, !tbaa !114
  %.not.i.i.i1 = icmp eq ptr %11, null
  br i1 %.not.i.i.i1, label %_ZNSt6vectorI9t_complexSaIS0_EED2Ev.exit2, label %12

12:                                               ; preds = %_ZNSt6vectorI9t_complexSaIS0_EED2Ev.exit
  %13 = getelementptr inbounds nuw i8, ptr %0, i64 32
  %14 = load ptr, ptr %13, align 8, !tbaa !115
  %15 = ptrtoint ptr %14 to i64
  %16 = ptrtoint ptr %11 to i64
  %17 = sub i64 %15, %16
  tail call void @_ZdlPvm(ptr noundef nonnull %11, i64 noundef %17) #21
  br label %_ZNSt6vectorI9t_complexSaIS0_EED2Ev.exit2

_ZNSt6vectorI9t_complexSaIS0_EED2Ev.exit2:        ; preds = %_ZNSt6vectorI9t_complexSaIS0_EED2Ev.exit, %12
  ret void
}